target datalayout = "e-m:e-p270:32:32-p271:32:32-p272:64:64-i64:64-i128:128-f80:128-n8:16:32:64-S128"
target triple = "x86_64-pc-linux-gnu"

%struct.UToolMemory = type { [64 x i8], i32, i32, i32, i32, ptr, [8 x i8], [1 x i8], [15 x i8] }

@stderr = external global ptr, align 8
@.str.4 = private unnamed_addr constant [27 x i8] c"error: %s - out of memory\0A\00", align 1
@.str.5 = private unnamed_addr constant [59 x i8] c"error: %s - trying to use more than maxCapacity=%ld units\0A\00", align 1

; Function Attrs: mustprogress uwtable
define internal noundef signext i8 @_ZL15utm_hasCapacityP11UToolMemoryi(ptr noundef %0, i32 noundef %1) #1 {
  %3 = alloca ptr, align 8
  %4 = alloca i32, align 4
  %5 = alloca i32, align 4
  store ptr %0, ptr %3, align 8, !tbaa !55
  store i32 %1, ptr %4, align 4, !tbaa !22
  %6 = load ptr, ptr %3, align 8, !tbaa !55
  %7 = getelementptr inbounds nuw %struct.UToolMemory, ptr %6, i32 0, i32 1
  %8 = load i32, ptr %7, align 16, !tbaa !59
  %9 = load i32, ptr %4, align 4, !tbaa !22
  %10 = icmp slt i32 %8, %9
  br i1 %10, label %11, label %125

11:                                               ; preds = %2
  call void @llvm.lifetime.start.p0(i64 4, ptr %5) #14
  %12 = load ptr, ptr %3, align 8, !tbaa !55
  %13 = getelementptr inbounds nuw %struct.UToolMemory, ptr %12, i32 0, i32 2
  %14 = load i32, ptr %13, align 4, !tbaa !60
  %15 = load i32, ptr %4, align 4, !tbaa !22
  %16 = icmp slt i32 %14, %15
  br i1 %16, label %17, label %27

17:                                               ; preds = %11
  %18 = load ptr, ptr @stderr, align 8, !tbaa !15
  %19 = load ptr, ptr %3, align 8, !tbaa !55
  %20 = getelementptr inbounds nuw %struct.UToolMemory, ptr %19, i32 0, i32 0
  %21 = getelementptr inbounds [64 x i8], ptr %20, i64 0, i64 0
  %22 = load ptr, ptr %3, align 8, !tbaa !55
  %23 = getelementptr inbounds nuw %struct.UToolMemory, ptr %22, i32 0, i32 2
  %24 = load i32, ptr %23, align 4, !tbaa !60
  %25 = sext i32 %24 to i64
  %26 = call i32 (ptr, ptr, ...) @fprintf(ptr noundef %18, ptr noundef @.str.5, ptr noundef %21, i64 noundef %25) #14
  call void @exit(i32 noundef 7) #15
  unreachable

27:                                               ; preds = %11
  %28 = load i32, ptr %4, align 4, !tbaa !22
  %29 = load ptr, ptr %3, align 8, !tbaa !55
  %30 = getelementptr inbounds nuw %struct.UToolMemory, ptr %29, i32 0, i32 1
  %31 = load i32, ptr %30, align 16, !tbaa !59
  %32 = mul nsw i32 2, %31
  %33 = icmp sge i32 %28, %32
  br i1 %33, label %34, label %36

34:                                               ; preds = %27
  %35 = load i32, ptr %4, align 4, !tbaa !22
  store i32 %35, ptr %5, align 4, !tbaa !22
  br label %55

36:                                               ; preds = %27
  %37 = load ptr, ptr %3, align 8, !tbaa !55
  %38 = getelementptr inbounds nuw %struct.UToolMemory, ptr %37, i32 0, i32 1
  %39 = load i32, ptr %38, align 16, !tbaa !59
  %40 = load ptr, ptr %3, align 8, !tbaa !55
  %41 = getelementptr inbounds nuw %struct.UToolMemory, ptr %40, i32 0, i32 2
  %42 = load i32, ptr %41, align 4, !tbaa !60
  %43 = sdiv i32 %42, 3
  %44 = icmp sle i32 %39, %43
  br i1 %44, label %45, label %50

45:                                               ; preds = %36
  %46 = load ptr, ptr %3, align 8, !tbaa !55
  %47 = getelementptr inbounds nuw %struct.UToolMemory, ptr %46, i32 0, i32 1
  %48 = load i32, ptr %47, align 16, !tbaa !59
  %49 = mul nsw i32 2, %48
  store i32 %49, ptr %5, align 4, !tbaa !22
  br label %54

50:                                               ; preds = %36
  %51 = load ptr, ptr %3, align 8, !tbaa !55
  %52 = getelementptr inbounds nuw %struct.UToolMemory, ptr %51, i32 0, i32 2
  %53 = load i32, ptr %52, align 4, !tbaa !60
  store i32 %53, ptr %5, align 4, !tbaa !22
  br label %54

54:                                               ; preds = %50, %45
  br label %55

55:                                               ; preds = %54, %34
  %56 = load ptr, ptr %3, align 8, !tbaa !55
  %57 = getelementptr inbounds nuw %struct.UToolMemory, ptr %56, i32 0, i32 5
  %58 = load ptr, ptr %57, align 16, !tbaa !57
  %59 = load ptr, ptr %3, align 8, !tbaa !55
  %60 = getelementptr inbounds nuw %struct.UToolMemory, ptr %59, i32 0, i32 7
  %61 = getelementptr inbounds [1 x i8], ptr %60, i64 0, i64 0
  %62 = icmp eq ptr %58, %61
  br i1 %62, label %63, label %97

63:                                               ; preds = %55
  %64 = load i32, ptr %5, align 4, !tbaa !22
  %65 = load ptr, ptr %3, align 8, !tbaa !55
  %66 = getelementptr inbounds nuw %struct.UToolMemory, ptr %65, i32 0, i32 3
  %67 = load i32, ptr %66, align 8, !tbaa !61
  %68 = mul nsw i32 %64, %67
  %69 = sext i32 %68 to i64
  %70 = call noalias ptr @uprv_malloc_77(i64 noundef %69) #18
  %71 = load ptr, ptr %3, align 8, !tbaa !55
  %72 = getelementptr inbounds nuw %struct.UToolMemory, ptr %71, i32 0, i32 5
  store ptr %70, ptr %72, align 16, !tbaa !57
  %73 = load ptr, ptr %3, align 8, !tbaa !55
  %74 = getelementptr inbounds nuw %struct.UToolMemory, ptr %73, i32 0, i32 5
  %75 = load ptr, ptr %74, align 16, !tbaa !57
  %76 = icmp ne ptr %75, null
  br i1 %76, label %77, label %96

77:                                               ; preds = %63
  br label %78

78:                                               ; preds = %77
  %79 = load ptr, ptr %3, align 8, !tbaa !55
  %80 = getelementptr inbounds nuw %struct.UToolMemory, ptr %79, i32 0, i32 5
  %81 = load ptr, ptr %80, align 16, !tbaa !57
  %82 = load ptr, ptr %3, align 8, !tbaa !55
  %83 = getelementptr inbounds nuw %struct.UToolMemory, ptr %82, i32 0, i32 7
  %84 = getelementptr inbounds [1 x i8], ptr %83, i64 0, i64 0
  %85 = load ptr, ptr %3, align 8, !tbaa !55
  %86 = getelementptr inbounds nuw %struct.UToolMemory, ptr %85, i32 0, i32 4
  %87 = load i32, ptr %86, align 4, !tbaa !62
  %88 = sext i32 %87 to i64
  %89 = load ptr, ptr %3, align 8, !tbaa !55
  %90 = getelementptr inbounds nuw %struct.UToolMemory, ptr %89, i32 0, i32 3
  %91 = load i32, ptr %90, align 8, !tbaa !61
  %92 = sext i32 %91 to i64
  %93 = mul i64 %88, %92
  call void @llvm.memcpy.p0.p0.i64(ptr align 1 %81, ptr align 16 %84, i64 %93, i1 false)
  br label %94

94:                                               ; preds = %78
  br label %95

95:                                               ; preds = %94
  br label %96

96:                                               ; preds = %95, %63
  br label %110

97:                                               ; preds = %55
  %98 = load ptr, ptr %3, align 8, !tbaa !55
  %99 = getelementptr inbounds nuw %struct.UToolMemory, ptr %98, i32 0, i32 5
  %100 = load ptr, ptr %99, align 16, !tbaa !57
  %101 = load i32, ptr %5, align 4, !tbaa !22
  %102 = load ptr, ptr %3, align 8, !tbaa !55
  %103 = getelementptr inbounds nuw %struct.UToolMemory, ptr %102, i32 0, i32 3
  %104 = load i32, ptr %103, align 8, !tbaa !61
  %105 = mul nsw i32 %101, %104
  %106 = sext i32 %105 to i64
  %107 = call ptr @uprv_realloc_77(ptr noundef %100, i64 noundef %106) #19
  %108 = load ptr, ptr %3, align 8, !tbaa !55
  %109 = getelementptr inbounds nuw %struct.UToolMemory, ptr %108, i32 0, i32 5
  store ptr %107, ptr %109, align 16, !tbaa !57
  br label %110

110:                                              ; preds = %97, %96
  %111 = load ptr, ptr %3, align 8, !tbaa !55
  %112 = getelementptr inbounds nuw %struct.UToolMemory, ptr %111, i32 0, i32 5
  %113 = load ptr, ptr %112, align 16, !tbaa !57
  %114 = icmp eq ptr %113, null
  br i1 %114, label %115, label %121

115:                                              ; preds = %110
  %116 = load ptr, ptr @stderr, align 8, !tbaa !15
  %117 = load ptr, ptr %3, align 8, !tbaa !55
  %118 = getelementptr inbounds nuw %struct.UToolMemory, ptr %117, i32 0, i32 0
  %119 = getelementptr inbounds [64 x i8], ptr %118, i64 0, i64 0
  %120 = call i32 (ptr, ptr, ...) @fprintf(ptr noundef %116, ptr noundef @.str.4, ptr noundef %119) #14
  call void @exit(i32 noundef 7) #15
  unreachable

121:                                              ; preds = %110
  %122 = load i32, ptr %5, align 4, !tbaa !22
  %123 = load ptr, ptr %3, align 8, !tbaa !55
  %124 = getelementptr inbounds nuw %struct.UToolMemory, ptr %123, i32 0, i32 1
  store i32 %122, ptr %124, align 16, !tbaa !59
  call void @llvm.lifetime.end.p0(i64 4, ptr %5) #14
  br label %125

125:                                              ; preds = %121, %2
  ret i8 1
}