; Function Attrs: mustprogress uwtable
define internal fastcc void @_ZL15utm_hasCapacityP11UToolMemoryi(ptr noundef %0, i32 noundef %1) unnamed_addr #8 {
  %3 = getelementptr inbounds nuw i8, ptr %0, i64 64
  %4 = load i32, ptr %3, align 16, !tbaa !38
  %5 = icmp slt i32 %4, %1
  br i1 %5, label %6, label %41

6:                                                ; preds = %2
  %7 = getelementptr inbounds nuw i8, ptr %0, i64 68
  %8 = load i32, ptr %7, align 4, !tbaa !39
  %9 = icmp slt i32 %8, %1
  br i1 %9, label %10, label %14

10:                                               ; preds = %6
  %11 = load ptr, ptr @stderr, align 8, !tbaa !10
  %12 = sext i32 %8 to i64
  %13 = tail call i32 (ptr, ptr, ...) @fprintf(ptr noundef %11, ptr noundef nonnull @.str.5, ptr noundef nonnull %0, i64 noundef %12) #25
  tail call void @exit(i32 noundef 7) #29
  unreachable

14:                                               ; preds = %6
  %15 = shl nsw i32 %4, 1
  %.not = icmp slt i32 %1, %15
  br i1 %.not, label %16, label %18

16:                                               ; preds = %14
  %17 = sdiv i32 %8, 3
  %.not37 = icmp sgt i32 %4, %17
  %. = select i1 %.not37, i32 %8, i32 %15
  br label %18

18:                                               ; preds = %16, %14
  %.0 = phi i32 [ %1, %14 ], [ %., %16 ]
  %19 = getelementptr inbounds nuw i8, ptr %0, i64 80
  %20 = load ptr, ptr %19, align 16, !tbaa !36
  %21 = getelementptr inbounds nuw i8, ptr %0, i64 96
  %22 = icmp eq ptr %20, %21
  %23 = getelementptr inbounds nuw i8, ptr %0, i64 72
  %24 = load i32, ptr %23, align 8, !tbaa !40
  %25 = mul nsw i32 %24, %.0
  %26 = sext i32 %25 to i64
  br i1 %22, label %27, label %35

27:                                               ; preds = %18
  %28 = tail call noalias ptr @uprv_malloc_77(i64 noundef %26) #28
  store ptr %28, ptr %19, align 16, !tbaa !36
  %.not38 = icmp eq ptr %28, null
  br i1 %.not38, label %.thread, label %.thread39

.thread39:                                        ; preds = %27
  %29 = getelementptr inbounds nuw i8, ptr %0, i64 76
  %30 = load i32, ptr %29, align 4, !tbaa !41
  %31 = sext i32 %30 to i64
  %32 = load i32, ptr %23, align 8, !tbaa !40
  %33 = sext i32 %32 to i64
  %34 = mul nsw i64 %33, %31
  tail call void @llvm.memcpy.p0.p0.i64(ptr nonnull align 1 %28, ptr nonnull align 16 %21, i64 %34, i1 false)
  br label %40

35:                                               ; preds = %18
  %36 = tail call ptr @uprv_realloc_77(ptr noundef %20, i64 noundef %26) #30
  store ptr %36, ptr %19, align 16, !tbaa !36
  %37 = icmp eq ptr %36, null
  br i1 %37, label %.thread, label %40

.thread:                                          ; preds = %27, %35
  %38 = load ptr, ptr @stderr, align 8, !tbaa !10
  %39 = tail call i32 (ptr, ptr, ...) @fprintf(ptr noundef %38, ptr noundef nonnull @.str.4, ptr noundef nonnull %0) #25
  tail call void @exit(i32 noundef 7) #29
  unreachable

40:                                               ; preds = %.thread39, %35
  store i32 %.0, ptr %3, align 16, !tbaa !38
  br label %41

41:                                               ; preds = %40, %2
  ret void
}